(dp0
Vengine
p1
Vlatex
p2
sVpackages
p3
c__builtin__
set
p4
((lp5
Vhyperref
p6
aVamsmath
p7
aVlatexsym
p8
aVlipsum
p9
aVcolor
p10
aVinputenc
p11
aVamsthm
p12
aVfontenc
p13
aVbabel
p14
aVmakeidx
p15
aVgraphicx
p16
aVnatbib
p17
aVamssymb
p18
atp19
Rp20
sVfiles_with_guttermarks
p21
g4
((lp22
V/Users/francesco086/Applications/MCIntegrator/doc/MCIntegrator-doc.tex
p23
aS'MCIntegrator-doc.tex'
p24
atp25
Rp26
sVsynctex
p27
I01
s.